(dp1
S'OriginalConfig'
p2
ccopy_reg
_reconstructor
p3
(cWMCore.Configuration
Configuration
p4
c__builtin__
object
p5
NtRp6
(dp7
S'Site'
p8
g3
(cWMCore.Configuration
ConfigSection
p9
g5
NtRp10
(dp11
S'_internal_skipChecks'
p12
I00
sS'_internal_documentation'
p13
S''
sS'_internal_settings'
p14
c__builtin__
set
p15
((lp16
S'storageSite'
p17
atRp18
sS'_internal_name'
p19
g8
sS'_internal_docstrings'
p20
(dp21
sS'_internal_children'
p22
g15
((ltRp23
sg17
S'T2_FR_GRIF_LLR'
p24
sS'_internal_parent_ref'
p25
NsbsS'_internal_sections'
p26
(lp27
S'General'
p28
aS'JobType'
p29
aS'Data'
p30
ag8
aS'User'
p31
aS'Debug'
p32
asg28
g3
(g9
g5
NtRp33
(dp34
g12
I00
sg13
S''
sg14
g15
((lp35
S'transferOutputs'
p36
aS'transferLogs'
p37
aS'requestName'
p38
atRp39
sg19
g28
sg20
(dp40
sg36
I01
sg22
g15
((ltRp41
sg38
S'btagCSVv3_qcd170v2'
p42
sg25
Nsg37
I01
sbsS'_internal_webapps'
p43
(lp44
sg31
g3
(g9
g5
NtRp45
(dp46
g12
I00
sg13
S''
sg14
g15
((ltRp47
sg19
g31
sg20
(dp48
sg22
g15
((ltRp49
sg25
NsbsS'_internal_components'
p50
(lp51
sg32
g3
(g9
g5
NtRp52
(dp53
g12
I00
sg13
S''
sg14
g15
((ltRp54
sg19
g32
sg20
(dp55
sg22
g15
((ltRp56
sg25
Nsbsg30
g3
(g9
g5
NtRp57
(dp58
S'inputDataset'
p59
S'/Pythia6_Dijet170_pp502_Hydjet_MB/HINPbPbWinter16DR-75X_mcRun2_HeavyIon_v13-v1/AODSIM'
p60
sS'outputDatasetTag'
p61
g42
sg12
I00
sS'splitting'
p62
S'FileBased'
p63
sS'unitsPerJob'
p64
I1
sg13
S''
sg14
g15
((lp65
g59
ag61
aS'totalUnits'
p66
ag64
ag62
aS'inputDBS'
p67
aS'outLFNDirBase'
p68
aS'publication'
p69
atRp70
sg19
g30
sg67
S'global'
p71
sg20
(dp72
sg22
g15
((ltRp73
sg69
I00
sg68
S'/store/user/istaslis/btagCSVv3_qcd170v2'
p74
sg25
Nsg66
I200
sbsg29
g3
(g9
g5
NtRp75
(dp76
g12
I00
sg13
S''
sg14
g15
((lp77
S'psetName'
p78
aS'pluginName'
p79
aS'maxMemoryMB'
p80
atRp81
sg19
g29
sg20
(dp82
sg79
S'Analysis'
p83
sg22
g15
((ltRp84
sg78
S'runForestAOD_PbPb_MIX_75X.py'
p85
sg25
Nsg80
I2400
sbsbsS'voGroup'
p86
S''
sS'Server'
p87
S'cmsweb.cern.ch'
p88
sS'instance'
p89
S'prod'
p90
sS'RequestName'
p91
V170124_190323:istaslis_crab_btagCSVv3_qcd170v2
p92
sS'voRole'
p93
S'NULL'
p94
sS'Port'
p95
S''
s.